target datalayout = "e-m:e-p270:32:32-p271:32:32-p272:64:64-i64:64-i128:128-f80:128-n8:16:32:64-S128"
target triple = "x86_64-pc-linux-gnu"

@ff_crop_tab = external hidden constant [2304 x i8], align 16

; Function Attrs: alwaysinline nounwind uwtable
define internal void @filter_common(ptr noundef %0, i64 noundef %1, i32 noundef %2, i32 noundef %3) #5 {
  %5 = alloca ptr, align 8
  %6 = alloca i64, align 8
  %7 = alloca i32, align 4
  %8 = alloca i32, align 4
  %9 = alloca i32, align 4
  %10 = alloca i32, align 4
  %11 = alloca i32, align 4
  %12 = alloca i32, align 4
  %13 = alloca i32, align 4
  %14 = alloca i32, align 4
  %15 = alloca i32, align 4
  %16 = alloca i32, align 4
  %17 = alloca i32, align 4
  %18 = alloca i32, align 4
  %19 = alloca i32, align 4
  %20 = alloca ptr, align 8
  store ptr %0, ptr %5, align 8, !tbaa !10
  store i64 %1, ptr %6, align 8, !tbaa !12
  store i32 %2, ptr %7, align 4, !tbaa !14
  store i32 %3, ptr %8, align 4, !tbaa !14
  call void @llvm.lifetime.start.p0(i64 4, ptr %9) #6
  %21 = load ptr, ptr %5, align 8, !tbaa !10
  %22 = load i64, ptr %6, align 8, !tbaa !12
  %23 = mul nsw i64 -4, %22
  %24 = getelementptr inbounds i8, ptr %21, i64 %23
  %25 = load i8, ptr %24, align 1, !tbaa !18
  %26 = zext i8 %25 to i32
  store i32 %26, ptr %9, align 4, !tbaa !14
  call void @llvm.lifetime.start.p0(i64 4, ptr %10) #6
  %27 = load ptr, ptr %5, align 8, !tbaa !10
  %28 = load i64, ptr %6, align 8, !tbaa !12
  %29 = mul nsw i64 -3, %28
  %30 = getelementptr inbounds i8, ptr %27, i64 %29
  %31 = load i8, ptr %30, align 1, !tbaa !18
  %32 = zext i8 %31 to i32
  store i32 %32, ptr %10, align 4, !tbaa !14
  call void @llvm.lifetime.start.p0(i64 4, ptr %11) #6
  %33 = load ptr, ptr %5, align 8, !tbaa !10
  %34 = load i64, ptr %6, align 8, !tbaa !12
  %35 = mul nsw i64 -2, %34
  %36 = getelementptr inbounds i8, ptr %33, i64 %35
  %37 = load i8, ptr %36, align 1, !tbaa !18
  %38 = zext i8 %37 to i32
  store i32 %38, ptr %11, align 4, !tbaa !14
  call void @llvm.lifetime.start.p0(i64 4, ptr %12) #6
  %39 = load ptr, ptr %5, align 8, !tbaa !10
  %40 = load i64, ptr %6, align 8, !tbaa !12
  %41 = mul nsw i64 -1, %40
  %42 = getelementptr inbounds i8, ptr %39, i64 %41
  %43 = load i8, ptr %42, align 1, !tbaa !18
  %44 = zext i8 %43 to i32
  store i32 %44, ptr %12, align 4, !tbaa !14
  call void @llvm.lifetime.start.p0(i64 4, ptr %13) #6
  %45 = load ptr, ptr %5, align 8, !tbaa !10
  %46 = load i64, ptr %6, align 8, !tbaa !12
  %47 = mul nsw i64 0, %46
  %48 = getelementptr inbounds i8, ptr %45, i64 %47
  %49 = load i8, ptr %48, align 1, !tbaa !18
  %50 = zext i8 %49 to i32
  store i32 %50, ptr %13, align 4, !tbaa !14
  call void @llvm.lifetime.start.p0(i64 4, ptr %14) #6
  %51 = load ptr, ptr %5, align 8, !tbaa !10
  %52 = load i64, ptr %6, align 8, !tbaa !12
  %53 = mul nsw i64 1, %52
  %54 = getelementptr inbounds i8, ptr %51, i64 %53
  %55 = load i8, ptr %54, align 1, !tbaa !18
  %56 = zext i8 %55 to i32
  store i32 %56, ptr %14, align 4, !tbaa !14
  call void @llvm.lifetime.start.p0(i64 4, ptr %15) #6
  %57 = load ptr, ptr %5, align 8, !tbaa !10
  %58 = load i64, ptr %6, align 8, !tbaa !12
  %59 = mul nsw i64 2, %58
  %60 = getelementptr inbounds i8, ptr %57, i64 %59
  %61 = load i8, ptr %60, align 1, !tbaa !18
  %62 = zext i8 %61 to i32
  store i32 %62, ptr %15, align 4, !tbaa !14
  call void @llvm.lifetime.start.p0(i64 4, ptr %16) #6
  %63 = load ptr, ptr %5, align 8, !tbaa !10
  %64 = load i64, ptr %6, align 8, !tbaa !12
  %65 = mul nsw i64 3, %64
  %66 = getelementptr inbounds i8, ptr %63, i64 %65
  %67 = load i8, ptr %66, align 1, !tbaa !18
  %68 = zext i8 %67 to i32
  store i32 %68, ptr %16, align 4, !tbaa !14
  call void @llvm.lifetime.start.p0(i64 4, ptr %17) #6
  call void @llvm.lifetime.start.p0(i64 4, ptr %18) #6
  call void @llvm.lifetime.start.p0(i64 4, ptr %19) #6
  call void @llvm.lifetime.start.p0(i64 8, ptr %20) #6
  store ptr getelementptr inbounds (i8, ptr @ff_crop_tab, i64 1024), ptr %20, align 8, !tbaa !10
  %69 = load i32, ptr %13, align 4, !tbaa !14
  %70 = load i32, ptr %12, align 4, !tbaa !14
  %71 = sub nsw i32 %69, %70
  %72 = mul nsw i32 3, %71
  store i32 %72, ptr %17, align 4, !tbaa !14
  %73 = load i32, ptr %7, align 4, !tbaa !14
  %74 = icmp ne i32 %73, 0
  br i1 %74, label %75, label %88

75:                                               ; preds = %4
  %76 = load ptr, ptr %20, align 8, !tbaa !10
  %77 = load i32, ptr %11, align 4, !tbaa !14
  %78 = load i32, ptr %14, align 4, !tbaa !14
  %79 = sub nsw i32 %77, %78
  %80 = add nsw i32 %79, 128
  %81 = sext i32 %80 to i64
  %82 = getelementptr inbounds i8, ptr %76, i64 %81
  %83 = load i8, ptr %82, align 1, !tbaa !18
  %84 = zext i8 %83 to i32
  %85 = sub nsw i32 %84, 128
  %86 = load i32, ptr %17, align 4, !tbaa !14
  %87 = add nsw i32 %86, %85
  store i32 %87, ptr %17, align 4, !tbaa !14
  br label %88

88:                                               ; preds = %75, %4
  %89 = load ptr, ptr %20, align 8, !tbaa !10
  %90 = load i32, ptr %17, align 4, !tbaa !14
  %91 = add nsw i32 %90, 128
  %92 = sext i32 %91 to i64
  %93 = getelementptr inbounds i8, ptr %89, i64 %92
  %94 = load i8, ptr %93, align 1, !tbaa !18
  %95 = zext i8 %94 to i32
  %96 = sub nsw i32 %95, 128
  store i32 %96, ptr %17, align 4, !tbaa !14
  %97 = load i32, ptr %17, align 4, !tbaa !14
  %98 = add nsw i32 %97, 4
  %99 = icmp sgt i32 %98, 127
  br i1 %99, label %100, label %101

100:                                              ; preds = %88
  br label %104

101:                                              ; preds = %88
  %102 = load i32, ptr %17, align 4, !tbaa !14
  %103 = add nsw i32 %102, 4
  br label %104

104:                                              ; preds = %101, %100
  %105 = phi i32 [ 127, %100 ], [ %103, %101 ]
  %106 = ashr i32 %105, 3
  store i32 %106, ptr %18, align 4, !tbaa !14
  %107 = load i32, ptr %8, align 4, !tbaa !14
  %108 = icmp ne i32 %107, 0
  br i1 %108, label %109, label %116

109:                                              ; preds = %104
  %110 = load i32, ptr %18, align 4, !tbaa !14
  %111 = load i32, ptr %17, align 4, !tbaa !14
  %112 = and i32 %111, 7
  %113 = icmp eq i32 %112, 4
  %114 = zext i1 %113 to i32
  %115 = sub nsw i32 %110, %114
  store i32 %115, ptr %19, align 4, !tbaa !14
  br label %127

116:                                              ; preds = %104
  %117 = load i32, ptr %17, align 4, !tbaa !14
  %118 = add nsw i32 %117, 3
  %119 = icmp sgt i32 %118, 127
  br i1 %119, label %120, label %121

120:                                              ; preds = %116
  br label %124

121:                                              ; preds = %116
  %122 = load i32, ptr %17, align 4, !tbaa !14
  %123 = add nsw i32 %122, 3
  br label %124

124:                                              ; preds = %121, %120
  %125 = phi i32 [ 127, %120 ], [ %123, %121 ]
  %126 = ashr i32 %125, 3
  store i32 %126, ptr %19, align 4, !tbaa !14
  br label %127

127:                                              ; preds = %124, %109
  %128 = load ptr, ptr %20, align 8, !tbaa !10
  %129 = load i32, ptr %12, align 4, !tbaa !14
  %130 = load i32, ptr %19, align 4, !tbaa !14
  %131 = add nsw i32 %129, %130
  %132 = sext i32 %131 to i64
  %133 = getelementptr inbounds i8, ptr %128, i64 %132
  %134 = load i8, ptr %133, align 1, !tbaa !18
  %135 = load ptr, ptr %5, align 8, !tbaa !10
  %136 = load i64, ptr %6, align 8, !tbaa !12
  %137 = mul nsw i64 -1, %136
  %138 = getelementptr inbounds i8, ptr %135, i64 %137
  store i8 %134, ptr %138, align 1, !tbaa !18
  %139 = load ptr, ptr %20, align 8, !tbaa !10
  %140 = load i32, ptr %13, align 4, !tbaa !14
  %141 = load i32, ptr %18, align 4, !tbaa !14
  %142 = sub nsw i32 %140, %141
  %143 = sext i32 %142 to i64
  %144 = getelementptr inbounds i8, ptr %139, i64 %143
  %145 = load i8, ptr %144, align 1, !tbaa !18
  %146 = load ptr, ptr %5, align 8, !tbaa !10
  %147 = load i64, ptr %6, align 8, !tbaa !12
  %148 = mul nsw i64 0, %147
  %149 = getelementptr inbounds i8, ptr %146, i64 %148
  store i8 %145, ptr %149, align 1, !tbaa !18
  %150 = load i32, ptr %7, align 4, !tbaa !14
  %151 = icmp ne i32 %150, 0
  br i1 %151, label %178, label %152

152:                                              ; preds = %127
  %153 = load i32, ptr %18, align 4, !tbaa !14
  %154 = add nsw i32 %153, 1
  %155 = ashr i32 %154, 1
  store i32 %155, ptr %17, align 4, !tbaa !14
  %156 = load ptr, ptr %20, align 8, !tbaa !10
  %157 = load i32, ptr %11, align 4, !tbaa !14
  %158 = load i32, ptr %17, align 4, !tbaa !14
  %159 = add nsw i32 %157, %158
  %160 = sext i32 %159 to i64
  %161 = getelementptr inbounds i8, ptr %156, i64 %160
  %162 = load i8, ptr %161, align 1, !tbaa !18
  %163 = load ptr, ptr %5, align 8, !tbaa !10
  %164 = load i64, ptr %6, align 8, !tbaa !12
  %165 = mul nsw i64 -2, %164
  %166 = getelementptr inbounds i8, ptr %163, i64 %165
  store i8 %162, ptr %166, align 1, !tbaa !18
  %167 = load ptr, ptr %20, align 8, !tbaa !10
  %168 = load i32, ptr %14, align 4, !tbaa !14
  %169 = load i32, ptr %17, align 4, !tbaa !14
  %170 = sub nsw i32 %168, %169
  %171 = sext i32 %170 to i64
  %172 = getelementptr inbounds i8, ptr %167, i64 %171
  %173 = load i8, ptr %172, align 1, !tbaa !18
  %174 = load ptr, ptr %5, align 8, !tbaa !10
  %175 = load i64, ptr %6, align 8, !tbaa !12
  %176 = mul nsw i64 1, %175
  %177 = getelementptr inbounds i8, ptr %174, i64 %176
  store i8 %173, ptr %177, align 1, !tbaa !18
  br label %178

178:                                              ; preds = %152, %127
  call void @llvm.lifetime.end.p0(i64 8, ptr %20) #6
  call void @llvm.lifetime.end.p0(i64 4, ptr %19) #6
  call void @llvm.lifetime.end.p0(i64 4, ptr %18) #6
  call void @llvm.lifetime.end.p0(i64 4, ptr %17) #6
  call void @llvm.lifetime.end.p0(i64 4, ptr %16) #6
  call void @llvm.lifetime.end.p0(i64 4, ptr %15) #6
  call void @llvm.lifetime.end.p0(i64 4, ptr %14) #6
  call void @llvm.lifetime.end.p0(i64 4, ptr %13) #6
  call void @llvm.lifetime.end.p0(i64 4, ptr %12) #6
  call void @llvm.lifetime.end.p0(i64 4, ptr %11) #6
  call void @llvm.lifetime.end.p0(i64 4, ptr %10) #6
  call void @llvm.lifetime.end.p0(i64 4, ptr %9) #6
  ret void
}

; Function Attrs: alwaysinline nounwind uwtable
define internal void @vp8_filter_common(ptr noundef %0, i64 noundef %1, i32 noundef %2) #5 {
  %4 = alloca ptr, align 8
  %5 = alloca i64, align 8
  %6 = alloca i32, align 4
  store ptr %0, ptr %4, align 8, !tbaa !10
  store i64 %1, ptr %5, align 8, !tbaa !12
  store i32 %2, ptr %6, align 4, !tbaa !14
  %7 = load ptr, ptr %4, align 8, !tbaa !10
  %8 = load i64, ptr %5, align 8, !tbaa !12
  %9 = load i32, ptr %6, align 4, !tbaa !14
  call void @filter_common(ptr noundef %7, i64 noundef %8, i32 noundef %9, i32 noundef 0)
  ret void
}

; Function Attrs: alwaysinline nounwind uwtable
define internal i32 @vp8_simple_limit(ptr noundef %0, i64 noundef %1, i32 noundef %2) #5 {
  %4 = alloca ptr, align 8
  %5 = alloca i64, align 8
  %6 = alloca i32, align 4
  %7 = alloca i32, align 4
  %8 = alloca i32, align 4
  %9 = alloca i32, align 4
  %10 = alloca i32, align 4
  %11 = alloca i32, align 4
  %12 = alloca i32, align 4
  %13 = alloca i32, align 4
  %14 = alloca i32, align 4
  store ptr %0, ptr %4, align 8, !tbaa !10
  store i64 %1, ptr %5, align 8, !tbaa !12
  store i32 %2, ptr %6, align 4, !tbaa !14
  call void @llvm.lifetime.start.p0(i64 4, ptr %7) #6
  %15 = load ptr, ptr %4, align 8, !tbaa !10
  %16 = load i64, ptr %5, align 8, !tbaa !12
  %17 = mul nsw i64 -4, %16
  %18 = getelementptr inbounds i8, ptr %15, i64 %17
  %19 = load i8, ptr %18, align 1, !tbaa !18
  %20 = zext i8 %19 to i32
  store i32 %20, ptr %7, align 4, !tbaa !14
  call void @llvm.lifetime.start.p0(i64 4, ptr %8) #6
  %21 = load ptr, ptr %4, align 8, !tbaa !10
  %22 = load i64, ptr %5, align 8, !tbaa !12
  %23 = mul nsw i64 -3, %22
  %24 = getelementptr inbounds i8, ptr %21, i64 %23
  %25 = load i8, ptr %24, align 1, !tbaa !18
  %26 = zext i8 %25 to i32
  store i32 %26, ptr %8, align 4, !tbaa !14
  call void @llvm.lifetime.start.p0(i64 4, ptr %9) #6
  %27 = load ptr, ptr %4, align 8, !tbaa !10
  %28 = load i64, ptr %5, align 8, !tbaa !12
  %29 = mul nsw i64 -2, %28
  %30 = getelementptr inbounds i8, ptr %27, i64 %29
  %31 = load i8, ptr %30, align 1, !tbaa !18
  %32 = zext i8 %31 to i32
  store i32 %32, ptr %9, align 4, !tbaa !14
  call void @llvm.lifetime.start.p0(i64 4, ptr %10) #6
  %33 = load ptr, ptr %4, align 8, !tbaa !10
  %34 = load i64, ptr %5, align 8, !tbaa !12
  %35 = mul nsw i64 -1, %34
  %36 = getelementptr inbounds i8, ptr %33, i64 %35
  %37 = load i8, ptr %36, align 1, !tbaa !18
  %38 = zext i8 %37 to i32
  store i32 %38, ptr %10, align 4, !tbaa !14
  call void @llvm.lifetime.start.p0(i64 4, ptr %11) #6
  %39 = load ptr, ptr %4, align 8, !tbaa !10
  %40 = load i64, ptr %5, align 8, !tbaa !12
  %41 = mul nsw i64 0, %40
  %42 = getelementptr inbounds i8, ptr %39, i64 %41
  %43 = load i8, ptr %42, align 1, !tbaa !18
  %44 = zext i8 %43 to i32
  store i32 %44, ptr %11, align 4, !tbaa !14
  call void @llvm.lifetime.start.p0(i64 4, ptr %12) #6
  %45 = load ptr, ptr %4, align 8, !tbaa !10
  %46 = load i64, ptr %5, align 8, !tbaa !12
  %47 = mul nsw i64 1, %46
  %48 = getelementptr inbounds i8, ptr %45, i64 %47
  %49 = load i8, ptr %48, align 1, !tbaa !18
  %50 = zext i8 %49 to i32
  store i32 %50, ptr %12, align 4, !tbaa !14
  call void @llvm.lifetime.start.p0(i64 4, ptr %13) #6
  %51 = load ptr, ptr %4, align 8, !tbaa !10
  %52 = load i64, ptr %5, align 8, !tbaa !12
  %53 = mul nsw i64 2, %52
  %54 = getelementptr inbounds i8, ptr %51, i64 %53
  %55 = load i8, ptr %54, align 1, !tbaa !18
  %56 = zext i8 %55 to i32
  store i32 %56, ptr %13, align 4, !tbaa !14
  call void @llvm.lifetime.start.p0(i64 4, ptr %14) #6
  %57 = load ptr, ptr %4, align 8, !tbaa !10
  %58 = load i64, ptr %5, align 8, !tbaa !12
  %59 = mul nsw i64 3, %58
  %60 = getelementptr inbounds i8, ptr %57, i64 %59
  %61 = load i8, ptr %60, align 1, !tbaa !18
  %62 = zext i8 %61 to i32
  store i32 %62, ptr %14, align 4, !tbaa !14
  %63 = load i32, ptr %10, align 4, !tbaa !14
  %64 = load i32, ptr %11, align 4, !tbaa !14
  %65 = sub nsw i32 %63, %64
  %66 = icmp sge i32 %65, 0
  br i1 %66, label %67, label %71

67:                                               ; preds = %3
  %68 = load i32, ptr %10, align 4, !tbaa !14
  %69 = load i32, ptr %11, align 4, !tbaa !14
  %70 = sub nsw i32 %68, %69
  br label %76

71:                                               ; preds = %3
  %72 = load i32, ptr %10, align 4, !tbaa !14
  %73 = load i32, ptr %11, align 4, !tbaa !14
  %74 = sub nsw i32 %72, %73
  %75 = sub nsw i32 0, %74
  br label %76

76:                                               ; preds = %71, %67
  %77 = phi i32 [ %70, %67 ], [ %75, %71 ]
  %78 = mul nsw i32 2, %77
  %79 = load i32, ptr %9, align 4, !tbaa !14
  %80 = load i32, ptr %12, align 4, !tbaa !14
  %81 = sub nsw i32 %79, %80
  %82 = icmp sge i32 %81, 0
  br i1 %82, label %83, label %87

83:                                               ; preds = %76
  %84 = load i32, ptr %9, align 4, !tbaa !14
  %85 = load i32, ptr %12, align 4, !tbaa !14
  %86 = sub nsw i32 %84, %85
  br label %92

87:                                               ; preds = %76
  %88 = load i32, ptr %9, align 4, !tbaa !14
  %89 = load i32, ptr %12, align 4, !tbaa !14
  %90 = sub nsw i32 %88, %89
  %91 = sub nsw i32 0, %90
  br label %92

92:                                               ; preds = %87, %83
  %93 = phi i32 [ %86, %83 ], [ %91, %87 ]
  %94 = ashr i32 %93, 1
  %95 = add nsw i32 %78, %94
  %96 = load i32, ptr %6, align 4, !tbaa !14
  %97 = icmp sle i32 %95, %96
  %98 = zext i1 %97 to i32
  call void @llvm.lifetime.end.p0(i64 4, ptr %14) #6
  call void @llvm.lifetime.end.p0(i64 4, ptr %13) #6
  call void @llvm.lifetime.end.p0(i64 4, ptr %12) #6
  call void @llvm.lifetime.end.p0(i64 4, ptr %11) #6
  call void @llvm.lifetime.end.p0(i64 4, ptr %10) #6
  call void @llvm.lifetime.end.p0(i64 4, ptr %9) #6
  call void @llvm.lifetime.end.p0(i64 4, ptr %8) #6
  call void @llvm.lifetime.end.p0(i64 4, ptr %7) #6
  ret i32 %98
}

; Function Attrs: nounwind uwtable
define internal void @vp8_h_loop_filter_simple_c(ptr noundef %0, i64 noundef %1, i32 noundef %2) #1 {
  %4 = alloca ptr, align 8
  %5 = alloca i64, align 8
  %6 = alloca i32, align 4
  %7 = alloca i32, align 4
  store ptr %0, ptr %4, align 8, !tbaa !10
  store i64 %1, ptr %5, align 8, !tbaa !12
  store i32 %2, ptr %6, align 4, !tbaa !14
  call void @llvm.lifetime.start.p0(i64 4, ptr %7) #6
  store i32 0, ptr %7, align 4, !tbaa !14
  br label %8

8:                                                ; preds = %29, %3
  %9 = load i32, ptr %7, align 4, !tbaa !14
  %10 = icmp slt i32 %9, 16
  br i1 %10, label %11, label %32

11:                                               ; preds = %8
  %12 = load ptr, ptr %4, align 8, !tbaa !10
  %13 = load i32, ptr %7, align 4, !tbaa !14
  %14 = sext i32 %13 to i64
  %15 = load i64, ptr %5, align 8, !tbaa !12
  %16 = mul nsw i64 %14, %15
  %17 = getelementptr inbounds i8, ptr %12, i64 %16
  %18 = load i32, ptr %6, align 4, !tbaa !14
  %19 = call i32 @vp8_simple_limit(ptr noundef %17, i64 noundef 1, i32 noundef %18)
  %20 = icmp ne i32 %19, 0
  br i1 %20, label %21, label %28

21:                                               ; preds = %11
  %22 = load ptr, ptr %4, align 8, !tbaa !10
  %23 = load i32, ptr %7, align 4, !tbaa !14
  %24 = sext i32 %23 to i64
  %25 = load i64, ptr %5, align 8, !tbaa !12
  %26 = mul nsw i64 %24, %25
  %27 = getelementptr inbounds i8, ptr %22, i64 %26
  call void @vp8_filter_common(ptr noundef %27, i64 noundef 1, i32 noundef 1)
  br label %28

28:                                               ; preds = %21, %11
  br label %29

29:                                               ; preds = %28
  %30 = load i32, ptr %7, align 4, !tbaa !14
  %31 = add nsw i32 %30, 1
  store i32 %31, ptr %7, align 4, !tbaa !14
  br label %8, !llvm.loop !161

32:                                               ; preds = %8
  call void @llvm.lifetime.end.p0(i64 4, ptr %7) #6
  ret void
}