; Function Attrs: nofree norecurse nosync nounwind memory(argmem: readwrite) uwtable
define internal void @vp8_h_loop_filter_simple_c(ptr noundef captures(none) %0, i64 noundef %1, i32 noundef %2) #1 {
  br label %4

4:                                                ; preds = %3, %50
  %indvars.iv = phi i64 [ 0, %3 ], [ %indvars.iv.next, %50 ]
  %5 = mul nsw i64 %1, %indvars.iv
  %6 = getelementptr inbounds i8, ptr %0, i64 %5
  %7 = getelementptr inbounds i8, ptr %6, i64 -2
  %8 = load i8, ptr %7, align 1, !tbaa !10
  %9 = zext i8 %8 to i32
  %10 = getelementptr inbounds i8, ptr %6, i64 -1
  %11 = load i8, ptr %10, align 1, !tbaa !10
  %12 = zext i8 %11 to i32
  %13 = load i8, ptr %6, align 1, !tbaa !10
  %14 = zext i8 %13 to i32
  %15 = getelementptr inbounds nuw i8, ptr %6, i64 1
  %16 = load i8, ptr %15, align 1, !tbaa !10
  %17 = zext i8 %16 to i32
  %18 = sub nsw i32 %12, %14
  %19 = tail call i32 @llvm.abs.i32(i32 %18, i1 true)
  %20 = sub nsw i32 %9, %17
  %21 = tail call i32 @llvm.abs.i32(i32 %20, i1 true)
  %22 = shl nuw nsw i32 %19, 1
  %23 = lshr i32 %21, 1
  %24 = add nuw nsw i32 %23, %22
  %.not8 = icmp sgt i32 %24, %2
  br i1 %.not8, label %50, label %25

25:                                               ; preds = %4
  %26 = sub nsw i32 %14, %12
  %27 = mul nsw i32 %26, 3
  %28 = sext i32 %20 to i64
  %gep = getelementptr i8, ptr getelementptr inbounds nuw (i8, ptr @ff_crop_tab, i64 1152), i64 %28
  %29 = load i8, ptr %gep, align 1, !tbaa !10
  %30 = zext i8 %29 to i32
  %31 = add nsw i32 %27, -128
  %32 = add nsw i32 %31, %30
  %33 = sext i32 %32 to i64
  %gep9 = getelementptr i8, ptr getelementptr inbounds nuw (i8, ptr @ff_crop_tab, i64 1152), i64 %33
  %34 = load i8, ptr %gep9, align 1, !tbaa !10
  %35 = zext i8 %34 to i32
  %36 = tail call i32 @llvm.umin.i32(i32 %35, i32 251)
  %37 = add nsw i32 %36, -124
  %38 = ashr i32 %37, 3
  %39 = tail call i32 @llvm.umin.i32(i32 %35, i32 252)
  %40 = add nsw i32 %39, -125
  %41 = ashr i32 %40, 3
  %42 = add nsw i32 %41, %12
  %43 = sext i32 %42 to i64
  %44 = getelementptr inbounds i8, ptr getelementptr inbounds nuw (i8, ptr @ff_crop_tab, i64 1024), i64 %43
  %45 = load i8, ptr %44, align 1, !tbaa !10
  store i8 %45, ptr %10, align 1, !tbaa !10
  %46 = sub nsw i32 %14, %38
  %47 = sext i32 %46 to i64
  %48 = getelementptr inbounds i8, ptr getelementptr inbounds nuw (i8, ptr @ff_crop_tab, i64 1024), i64 %47
  %49 = load i8, ptr %48, align 1, !tbaa !10
  store i8 %49, ptr %6, align 1, !tbaa !10
  br label %50

50:                                               ; preds = %4, %25
  %indvars.iv.next = add nuw nsw i64 %indvars.iv, 1
  %exitcond.not = icmp eq i64 %indvars.iv.next, 16
  br i1 %exitcond.not, label %51, label %4, !llvm.loop !159

51:                                               ; preds = %50
  ret void
}